target datalayout = "e-m:e-p270:32:32-p271:32:32-p272:64:64-i64:64-i128:128-f80:128-n8:16:32:64-S128"
target triple = "x86_64-pc-linux-gnu"

%struct._lv_image_header_cache_data_t = type { ptr, i32, %struct.lv_image_header_t, ptr }
%struct.lv_image_header_t = type <{ i64, i32 }>

; Function Attrs: nounwind uwtable
define internal void @image_header_cache_free_cb(ptr noundef %0, ptr noundef %1) #0 {
  %3 = alloca ptr, align 8
  %4 = alloca ptr, align 8
  store ptr %0, ptr %3, align 8, !tbaa !35
  store ptr %1, ptr %4, align 8, !tbaa !42
  %5 = load ptr, ptr %3, align 8, !tbaa !35
  %6 = getelementptr inbounds nuw %struct._lv_image_header_cache_data_t, ptr %5, i32 0, i32 1
  %7 = load i32, ptr %6, align 8, !tbaa !41
  %8 = icmp eq i32 %7, 1
  br i1 %8, label %9, label %13

9:                                                ; preds = %2
  %10 = load ptr, ptr %3, align 8, !tbaa !35
  %11 = getelementptr inbounds nuw %struct._lv_image_header_cache_data_t, ptr %10, i32 0, i32 0
  %12 = load ptr, ptr %11, align 8, !tbaa !37
  call void @lv_free(ptr noundef %12)
  br label %13

13:                                               ; preds = %9, %2
  ret void
}