; Function Attrs: nounwind uwtable
define internal void @image_header_cache_free_cb(ptr noundef readonly captures(none) %0, ptr readnone captures(none) %1) #0 {
  %3 = getelementptr inbounds nuw i8, ptr %0, i64 8
  %4 = load i32, ptr %3, align 8, !tbaa !38
  %5 = icmp eq i32 %4, 1
  br i1 %5, label %6, label %8

6:                                                ; preds = %2
  %7 = load ptr, ptr %0, align 8, !tbaa !34
  tail call void @lv_free(ptr noundef %7) #4
  br label %8

8:                                                ; preds = %6, %2
  ret void
}